(dp0
S'show_imports'
p1
I0
sS'prj_name'
p2
S'autoPACK'
p3
sS'docformat'
p4
S'epytext'
p5
sS'inheritance'
p6
S'grouped'
p7
sS'help'
p8
NsS'modules'
p9
(S'/Users/ludo/DEV/autopack_git/autopack/Compartment.py'
p10
S'/Users/ludo/DEV/autopack_git/autopack/Environment.py'
p11
S'/Users/ludo/DEV/autopack_git/autopack/Graphics.py'
p12
S'/Users/ludo/DEV/autopack_git/autopack/IOutils.py'
p13
S'/Users/ludo/DEV/autopack_git/autopack/Ingredient.py'
p14
S'/Users/ludo/DEV/autopack_git/autopack/Recipe.py'
p15
S'/Users/ludo/DEV/autopack_git/autopack/__init__.py'
p16
S'/Users/ludo/DEV/autopack_git/autopack/pandautil.py'
p17
S'/Users/ludo/DEV/autopack_git/autopack/randomRot.py'
p18
tp19
sS'private'
p20
I1
sS'prj_url'
p21
NsS'introspect_or_parse'
p22
S'both'
p23
sS'frames'
p24
I1
sS'css'
p25
S'default'
p26
sS'target'
p27
S'/Users/ludo/DEV/autopack_git/doc'
p28
s.